target datalayout = "e-m:e-p270:32:32-p271:32:32-p272:64:64-i64:64-i128:128-f80:128-n8:16:32:64-S128"
target triple = "x86_64-pc-linux-gnu"

; Function Attrs: mustprogress nounwind uwtable
define linkonce_odr dso_local noundef float @_ZSt4ceilf(float noundef %0) #1 comdat {
  %2 = alloca float, align 4
  store float %0, ptr %2, align 4
  %3 = load float, ptr %2, align 4
  %4 = call float @llvm.ceil.f32(float %3)
  ret float %4
}

; Function Attrs: mustprogress nounwind uwtable
define linkonce_odr dso_local noundef float @_ZSt5floorf(float noundef %0) #1 comdat {
  %2 = alloca float, align 4
  store float %0, ptr %2, align 4
  %3 = load float, ptr %2, align 4
  %4 = call float @llvm.floor.f32(float %3)
  ret float %4
}

; Function Attrs: mustprogress uwtable
define dso_local void @stbtt_GetGlyphBitmapBoxSubpixel(ptr noundef %0, i32 noundef %1, float noundef %2, float noundef %3, float noundef %4, float noundef %5, ptr noundef %6, ptr noundef %7, ptr noundef %8, ptr noundef %9) #0 {
  %11 = alloca ptr, align 8
  %12 = alloca i32, align 4
  %13 = alloca float, align 4
  %14 = alloca float, align 4
  %15 = alloca float, align 4
  %16 = alloca float, align 4
  %17 = alloca ptr, align 8
  %18 = alloca ptr, align 8
  %19 = alloca ptr, align 8
  %20 = alloca ptr, align 8
  %21 = alloca i32, align 4
  %22 = alloca i32, align 4
  %23 = alloca i32, align 4
  %24 = alloca i32, align 4
  store ptr %0, ptr %11, align 8
  store i32 %1, ptr %12, align 4
  store float %2, ptr %13, align 4
  store float %3, ptr %14, align 4
  store float %4, ptr %15, align 4
  store float %5, ptr %16, align 4
  store ptr %6, ptr %17, align 8
  store ptr %7, ptr %18, align 8
  store ptr %8, ptr %19, align 8
  store ptr %9, ptr %20, align 8
  store i32 0, ptr %21, align 4
  store i32 0, ptr %22, align 4
  %25 = load ptr, ptr %11, align 8
  %26 = load i32, ptr %12, align 4
  %27 = call i32 @stbtt_GetGlyphBox(ptr noundef %25, i32 noundef %26, ptr noundef %21, ptr noundef %22, ptr noundef %23, ptr noundef %24)
  %28 = icmp ne i32 %27, 0
  br i1 %28, label %50, label %29

29:                                               ; preds = %10
  %30 = load ptr, ptr %17, align 8
  %31 = icmp ne ptr %30, null
  br i1 %31, label %32, label %34

32:                                               ; preds = %29
  %33 = load ptr, ptr %17, align 8
  store i32 0, ptr %33, align 4
  br label %34

34:                                               ; preds = %32, %29
  %35 = load ptr, ptr %18, align 8
  %36 = icmp ne ptr %35, null
  br i1 %36, label %37, label %39

37:                                               ; preds = %34
  %38 = load ptr, ptr %18, align 8
  store i32 0, ptr %38, align 4
  br label %39

39:                                               ; preds = %37, %34
  %40 = load ptr, ptr %19, align 8
  %41 = icmp ne ptr %40, null
  br i1 %41, label %42, label %44

42:                                               ; preds = %39
  %43 = load ptr, ptr %19, align 8
  store i32 0, ptr %43, align 4
  br label %44

44:                                               ; preds = %42, %39
  %45 = load ptr, ptr %20, align 8
  %46 = icmp ne ptr %45, null
  br i1 %46, label %47, label %49

47:                                               ; preds = %44
  %48 = load ptr, ptr %20, align 8
  store i32 0, ptr %48, align 4
  br label %49

49:                                               ; preds = %47, %44
  br label %101

50:                                               ; preds = %10
  %51 = load ptr, ptr %17, align 8
  %52 = icmp ne ptr %51, null
  br i1 %52, label %53, label %62

53:                                               ; preds = %50
  %54 = load i32, ptr %21, align 4
  %55 = sitofp i32 %54 to float
  %56 = load float, ptr %13, align 4
  %57 = load float, ptr %15, align 4
  %58 = call float @llvm.fmuladd.f32(float %55, float %56, float %57)
  %59 = call noundef float @_ZSt5floorf(float noundef %58)
  %60 = fptosi float %59 to i32
  %61 = load ptr, ptr %17, align 8
  store i32 %60, ptr %61, align 4
  br label %62

62:                                               ; preds = %53, %50
  %63 = load ptr, ptr %18, align 8
  %64 = icmp ne ptr %63, null
  br i1 %64, label %65, label %75

65:                                               ; preds = %62
  %66 = load i32, ptr %24, align 4
  %67 = sub nsw i32 0, %66
  %68 = sitofp i32 %67 to float
  %69 = load float, ptr %14, align 4
  %70 = load float, ptr %16, align 4
  %71 = call float @llvm.fmuladd.f32(float %68, float %69, float %70)
  %72 = call noundef float @_ZSt5floorf(float noundef %71)
  %73 = fptosi float %72 to i32
  %74 = load ptr, ptr %18, align 8
  store i32 %73, ptr %74, align 4
  br label %75

75:                                               ; preds = %65, %62
  %76 = load ptr, ptr %19, align 8
  %77 = icmp ne ptr %76, null
  br i1 %77, label %78, label %87

78:                                               ; preds = %75
  %79 = load i32, ptr %23, align 4
  %80 = sitofp i32 %79 to float
  %81 = load float, ptr %13, align 4
  %82 = load float, ptr %15, align 4
  %83 = call float @llvm.fmuladd.f32(float %80, float %81, float %82)
  %84 = call noundef float @_ZSt4ceilf(float noundef %83)
  %85 = fptosi float %84 to i32
  %86 = load ptr, ptr %19, align 8
  store i32 %85, ptr %86, align 4
  br label %87

87:                                               ; preds = %78, %75
  %88 = load ptr, ptr %20, align 8
  %89 = icmp ne ptr %88, null
  br i1 %89, label %90, label %100

90:                                               ; preds = %87
  %91 = load i32, ptr %22, align 4
  %92 = sub nsw i32 0, %91
  %93 = sitofp i32 %92 to float
  %94 = load float, ptr %14, align 4
  %95 = load float, ptr %16, align 4
  %96 = call float @llvm.fmuladd.f32(float %93, float %94, float %95)
  %97 = call noundef float @_ZSt4ceilf(float noundef %96)
  %98 = fptosi float %97 to i32
  %99 = load ptr, ptr %20, align 8
  store i32 %98, ptr %99, align 4
  br label %100

100:                                              ; preds = %90, %87
  br label %101

101:                                              ; preds = %100, %49
  ret void
}

; Function Attrs: mustprogress uwtable
define dso_local void @stbtt_GetCodepointBitmapBoxSubpixel(ptr noundef %0, i32 noundef %1, float noundef %2, float noundef %3, float noundef %4, float noundef %5, ptr noundef %6, ptr noundef %7, ptr noundef %8, ptr noundef %9) #0 {
  %11 = alloca ptr, align 8
  %12 = alloca i32, align 4
  %13 = alloca float, align 4
  %14 = alloca float, align 4
  %15 = alloca float, align 4
  %16 = alloca float, align 4
  %17 = alloca ptr, align 8
  %18 = alloca ptr, align 8
  %19 = alloca ptr, align 8
  %20 = alloca ptr, align 8
  store ptr %0, ptr %11, align 8
  store i32 %1, ptr %12, align 4
  store float %2, ptr %13, align 4
  store float %3, ptr %14, align 4
  store float %4, ptr %15, align 4
  store float %5, ptr %16, align 4
  store ptr %6, ptr %17, align 8
  store ptr %7, ptr %18, align 8
  store ptr %8, ptr %19, align 8
  store ptr %9, ptr %20, align 8
  %21 = load ptr, ptr %11, align 8
  %22 = load ptr, ptr %11, align 8
  %23 = load i32, ptr %12, align 4
  %24 = call i32 @stbtt_FindGlyphIndex(ptr noundef %22, i32 noundef %23)
  %25 = load float, ptr %13, align 4
  %26 = load float, ptr %14, align 4
  %27 = load float, ptr %15, align 4
  %28 = load float, ptr %16, align 4
  %29 = load ptr, ptr %17, align 8
  %30 = load ptr, ptr %18, align 8
  %31 = load ptr, ptr %19, align 8
  %32 = load ptr, ptr %20, align 8
  call void @stbtt_GetGlyphBitmapBoxSubpixel(ptr noundef %21, i32 noundef %24, float noundef %25, float noundef %26, float noundef %27, float noundef %28, ptr noundef %29, ptr noundef %30, ptr noundef %31, ptr noundef %32)
  ret void
}